target datalayout = "e-m:e-p270:32:32-p271:32:32-p272:64:64-i64:64-i128:128-f80:128-n8:16:32:64-S128"
target triple = "x86_64-pc-linux-gnu"

%struct.RelFileLocator = type { i32, i32, i32 }
%struct.PageHeaderData = type { %struct.PageXLogRecPtr, i16, i16, i16, i16, i16, i16, i32, [0 x %struct.ItemIdData] }
%struct.PageXLogRecPtr = type { i32, i32 }
%struct.ItemIdData = type { i32 }
%struct.XLogReaderState = type { %struct.XLogReaderRoutine, i64, ptr, i64, i64, i64, i64, i64, i64, i64, i64, ptr, ptr, i64, i8, ptr, ptr, ptr, ptr, ptr, i32, %struct.WALSegmentContext, %struct.WALOpenSegment, i32, i64, i32, i64, i32, i64, i32, ptr, i32, ptr, i8, i8 }
%struct.XLogReaderRoutine = type { ptr, ptr, ptr }
%struct.WALSegmentContext = type { [1024 x i8], i32 }
%struct.WALOpenSegment = type { i32, i64, i32 }
%struct.DecodedXLogRecord = type { i64, i8, ptr, i64, i64, %struct.XLogRecord, i16, i32, ptr, i32, i32, [0 x %struct.DecodedBkpBlock] }
%struct.XLogRecord = type { i32, i32, i64, i8, i8, i32 }
%struct.DecodedBkpBlock = type { i8, %struct.RelFileLocator, i32, i32, i32, i8, i8, i8, ptr, i16, i16, i16, i8, i8, ptr, i16, i16 }

@LocalBufferBlockPointers = external global ptr, align 8
@BufferBlocks = external global ptr, align 8

; Function Attrs: inlinehint nounwind uwtable
define internal ptr @BufferGetBlock(i32 noundef %0) #3 {
  %2 = alloca ptr, align 8
  %3 = alloca i32, align 4
  store i32 %0, ptr %3, align 4
  %4 = load i32, ptr %3, align 4
  %5 = icmp slt i32 %4, 0
  br i1 %5, label %6, label %14

6:                                                ; preds = %1
  %7 = load ptr, ptr @LocalBufferBlockPointers, align 8
  %8 = load i32, ptr %3, align 4
  %9 = sub i32 0, %8
  %10 = sub i32 %9, 1
  %11 = sext i32 %10 to i64
  %12 = getelementptr inbounds ptr, ptr %7, i64 %11
  %13 = load ptr, ptr %12, align 8
  store ptr %13, ptr %2, align 8
  br label %21

14:                                               ; preds = %1
  %15 = load ptr, ptr @BufferBlocks, align 8
  %16 = load i32, ptr %3, align 4
  %17 = sub i32 %16, 1
  %18 = sext i32 %17 to i64
  %19 = mul i64 %18, 8192
  %20 = getelementptr inbounds nuw i8, ptr %15, i64 %19
  store ptr %20, ptr %2, align 8
  br label %21

21:                                               ; preds = %14, %6
  %22 = load ptr, ptr %2, align 8
  ret ptr %22
}

; Function Attrs: inlinehint nounwind uwtable
define internal zeroext i1 @BufferIsValid(i32 noundef %0) #3 {
  %2 = alloca i32, align 4
  store i32 %0, ptr %2, align 4
  %3 = load i32, ptr %2, align 4
  %4 = icmp ne i32 %3, 0
  ret i1 %4
}

; Function Attrs: inlinehint nounwind uwtable
define internal void @PageSetLSN(ptr noundef %0, i64 noundef %1) #3 {
  %3 = alloca ptr, align 8
  %4 = alloca i64, align 8
  store ptr %0, ptr %3, align 8
  store i64 %1, ptr %4, align 8
  %5 = load i64, ptr %4, align 8
  %6 = lshr i64 %5, 32
  %7 = trunc i64 %6 to i32
  %8 = load ptr, ptr %3, align 8
  %9 = getelementptr inbounds nuw %struct.PageHeaderData, ptr %8, i32 0, i32 0
  %10 = getelementptr inbounds nuw %struct.PageXLogRecPtr, ptr %9, i32 0, i32 0
  store i32 %7, ptr %10, align 4
  %11 = load i64, ptr %4, align 8
  %12 = trunc i64 %11 to i32
  %13 = load ptr, ptr %3, align 8
  %14 = getelementptr inbounds nuw %struct.PageHeaderData, ptr %13, i32 0, i32 0
  %15 = getelementptr inbounds nuw %struct.PageXLogRecPtr, ptr %14, i32 0, i32 1
  store i32 %12, ptr %15, align 4
  ret void
}

; Function Attrs: nounwind uwtable
define internal void @applyPageRedo(ptr noundef %0, ptr noundef %1, i64 noundef %2) #0 {
  %4 = alloca ptr, align 8
  %5 = alloca ptr, align 8
  %6 = alloca i64, align 8
  %7 = alloca ptr, align 8
  %8 = alloca ptr, align 8
  %9 = alloca i16, align 2
  %10 = alloca i16, align 2
  store ptr %0, ptr %4, align 8
  store ptr %1, ptr %5, align 8
  store i64 %2, ptr %6, align 8
  call void @llvm.lifetime.start.p0(i64 8, ptr %7) #7
  %11 = load ptr, ptr %5, align 8
  store ptr %11, ptr %7, align 8
  call void @llvm.lifetime.start.p0(i64 8, ptr %8) #7
  %12 = load ptr, ptr %5, align 8
  %13 = load i64, ptr %6, align 8
  %14 = getelementptr inbounds nuw i8, ptr %12, i64 %13
  store ptr %14, ptr %8, align 8
  br label %15

15:                                               ; preds = %19, %3
  %16 = load ptr, ptr %7, align 8
  %17 = load ptr, ptr %8, align 8
  %18 = icmp ult ptr %16, %17
  br i1 %18, label %19, label %39

19:                                               ; preds = %15
  call void @llvm.lifetime.start.p0(i64 2, ptr %9) #7
  call void @llvm.lifetime.start.p0(i64 2, ptr %10) #7
  %20 = load ptr, ptr %7, align 8
  call void @llvm.memcpy.p0.p0.i64(ptr align 2 %9, ptr align 1 %20, i64 2, i1 false)
  %21 = load ptr, ptr %7, align 8
  %22 = getelementptr inbounds nuw i8, ptr %21, i64 2
  store ptr %22, ptr %7, align 8
  %23 = load ptr, ptr %7, align 8
  call void @llvm.memcpy.p0.p0.i64(ptr align 2 %10, ptr align 1 %23, i64 2, i1 false)
  %24 = load ptr, ptr %7, align 8
  %25 = getelementptr inbounds nuw i8, ptr %24, i64 2
  store ptr %25, ptr %7, align 8
  %26 = load ptr, ptr %4, align 8
  %27 = load i16, ptr %9, align 2
  %28 = zext i16 %27 to i32
  %29 = sext i32 %28 to i64
  %30 = getelementptr inbounds i8, ptr %26, i64 %29
  %31 = load ptr, ptr %7, align 8
  %32 = load i16, ptr %10, align 2
  %33 = zext i16 %32 to i64
  call void @llvm.memcpy.p0.p0.i64(ptr align 1 %30, ptr align 1 %31, i64 %33, i1 false)
  %34 = load i16, ptr %10, align 2
  %35 = zext i16 %34 to i32
  %36 = load ptr, ptr %7, align 8
  %37 = sext i32 %35 to i64
  %38 = getelementptr inbounds i8, ptr %36, i64 %37
  store ptr %38, ptr %7, align 8
  call void @llvm.lifetime.end.p0(i64 2, ptr %10) #7
  call void @llvm.lifetime.end.p0(i64 2, ptr %9) #7
  br label %15, !llvm.loop !14

39:                                               ; preds = %15
  call void @llvm.lifetime.end.p0(i64 8, ptr %8) #7
  call void @llvm.lifetime.end.p0(i64 8, ptr %7) #7
  ret void
}

; Function Attrs: inlinehint nounwind uwtable
define internal ptr @BufferGetPage(i32 noundef %0) #3 {
  %2 = alloca i32, align 4
  store i32 %0, ptr %2, align 4
  %3 = load i32, ptr %2, align 4
  %4 = call ptr @BufferGetBlock(i32 noundef %3)
  ret ptr %4
}

; Function Attrs: nounwind uwtable
define dso_local void @generic_redo(ptr noundef %0) #0 {
  %2 = alloca ptr, align 8
  %3 = alloca i64, align 8
  %4 = alloca [4 x i32], align 16
  %5 = alloca i8, align 1
  %6 = alloca i32, align 4
  %7 = alloca i32, align 4
  %8 = alloca ptr, align 8
  %9 = alloca ptr, align 8
  %10 = alloca ptr, align 8
  %11 = alloca i64, align 8
  store ptr %0, ptr %2, align 8
  call void @llvm.lifetime.start.p0(i64 8, ptr %3) #7
  %12 = load ptr, ptr %2, align 8
  %13 = getelementptr inbounds nuw %struct.XLogReaderState, ptr %12, i32 0, i32 4
  %14 = load i64, ptr %13, align 8
  store i64 %14, ptr %3, align 8
  call void @llvm.lifetime.start.p0(i64 16, ptr %4) #7
  call void @llvm.lifetime.start.p0(i64 1, ptr %5) #7
  store i8 0, ptr %5, align 1
  br label %15

15:                                               ; preds = %97, %1
  %16 = load i8, ptr %5, align 1
  %17 = zext i8 %16 to i32
  %18 = load ptr, ptr %2, align 8
  %19 = getelementptr inbounds nuw %struct.XLogReaderState, ptr %18, i32 0, i32 11
  %20 = load ptr, ptr %19, align 8
  %21 = getelementptr inbounds nuw %struct.DecodedXLogRecord, ptr %20, i32 0, i32 10
  %22 = load i32, ptr %21, align 4
  %23 = icmp sle i32 %17, %22
  br i1 %23, label %24, label %100

24:                                               ; preds = %15
  call void @llvm.lifetime.start.p0(i64 4, ptr %6) #7
  %25 = load ptr, ptr %2, align 8
  %26 = getelementptr inbounds nuw %struct.XLogReaderState, ptr %25, i32 0, i32 11
  %27 = load ptr, ptr %26, align 8
  %28 = getelementptr inbounds nuw %struct.DecodedXLogRecord, ptr %27, i32 0, i32 10
  %29 = load i32, ptr %28, align 4
  %30 = load i8, ptr %5, align 1
  %31 = zext i8 %30 to i32
  %32 = icmp sge i32 %29, %31
  br i1 %32, label %33, label %44

33:                                               ; preds = %24
  %34 = load ptr, ptr %2, align 8
  %35 = getelementptr inbounds nuw %struct.XLogReaderState, ptr %34, i32 0, i32 11
  %36 = load ptr, ptr %35, align 8
  %37 = getelementptr inbounds nuw %struct.DecodedXLogRecord, ptr %36, i32 0, i32 11
  %38 = load i8, ptr %5, align 1
  %39 = zext i8 %38 to i64
  %40 = getelementptr inbounds nuw [0 x %struct.DecodedBkpBlock], ptr %37, i64 0, i64 %39
  %41 = getelementptr inbounds nuw %struct.DecodedBkpBlock, ptr %40, i32 0, i32 0
  %42 = load i8, ptr %41, align 8, !range !7, !noundef !8
  %43 = trunc i8 %42 to i1
  br i1 %43, label %48, label %44

44:                                               ; preds = %33, %24
  %45 = load i8, ptr %5, align 1
  %46 = zext i8 %45 to i64
  %47 = getelementptr inbounds nuw [4 x i32], ptr %4, i64 0, i64 %46
  store i32 0, ptr %47, align 4
  store i32 4, ptr %7, align 4
  br label %94

48:                                               ; preds = %33
  %49 = load ptr, ptr %2, align 8
  %50 = load i8, ptr %5, align 1
  %51 = load i8, ptr %5, align 1
  %52 = zext i8 %51 to i64
  %53 = getelementptr inbounds nuw [4 x i32], ptr %4, i64 0, i64 %52
  %54 = call i32 @XLogReadBufferForRedo(ptr noundef %49, i8 noundef zeroext %50, ptr noundef %53)
  store i32 %54, ptr %6, align 4
  %55 = load i32, ptr %6, align 4
  %56 = icmp eq i32 %55, 0
  br i1 %56, label %57, label %93

57:                                               ; preds = %48
  call void @llvm.lifetime.start.p0(i64 8, ptr %8) #7
  call void @llvm.lifetime.start.p0(i64 8, ptr %9) #7
  call void @llvm.lifetime.start.p0(i64 8, ptr %10) #7
  call void @llvm.lifetime.start.p0(i64 8, ptr %11) #7
  %58 = load i8, ptr %5, align 1
  %59 = zext i8 %58 to i64
  %60 = getelementptr inbounds nuw [4 x i32], ptr %4, i64 0, i64 %59
  %61 = load i32, ptr %60, align 4
  %62 = call ptr @BufferGetPage(i32 noundef %61)
  store ptr %62, ptr %8, align 8
  %63 = load ptr, ptr %2, align 8
  %64 = load i8, ptr %5, align 1
  %65 = call ptr @XLogRecGetBlockData(ptr noundef %63, i8 noundef zeroext %64, ptr noundef %11)
  store ptr %65, ptr %10, align 8
  %66 = load ptr, ptr %8, align 8
  %67 = load ptr, ptr %10, align 8
  %68 = load i64, ptr %11, align 8
  call void @applyPageRedo(ptr noundef %66, ptr noundef %67, i64 noundef %68)
  %69 = load ptr, ptr %8, align 8
  store ptr %69, ptr %9, align 8
  %70 = load ptr, ptr %8, align 8
  %71 = load ptr, ptr %9, align 8
  %72 = getelementptr inbounds nuw %struct.PageHeaderData, ptr %71, i32 0, i32 3
  %73 = load i16, ptr %72, align 4
  %74 = zext i16 %73 to i32
  %75 = sext i32 %74 to i64
  %76 = getelementptr inbounds i8, ptr %70, i64 %75
  %77 = load ptr, ptr %9, align 8
  %78 = getelementptr inbounds nuw %struct.PageHeaderData, ptr %77, i32 0, i32 4
  %79 = load i16, ptr %78, align 2
  %80 = zext i16 %79 to i32
  %81 = load ptr, ptr %9, align 8
  %82 = getelementptr inbounds nuw %struct.PageHeaderData, ptr %81, i32 0, i32 3
  %83 = load i16, ptr %82, align 4
  %84 = zext i16 %83 to i32
  %85 = sub i32 %80, %84
  %86 = sext i32 %85 to i64
  call void @llvm.memset.p0.i64(ptr align 1 %76, i8 0, i64 %86, i1 false)
  %87 = load ptr, ptr %8, align 8
  %88 = load i64, ptr %3, align 8
  call void @PageSetLSN(ptr noundef %87, i64 noundef %88)
  %89 = load i8, ptr %5, align 1
  %90 = zext i8 %89 to i64
  %91 = getelementptr inbounds nuw [4 x i32], ptr %4, i64 0, i64 %90
  %92 = load i32, ptr %91, align 4
  call void @MarkBufferDirty(i32 noundef %92)
  call void @llvm.lifetime.end.p0(i64 8, ptr %11) #7
  call void @llvm.lifetime.end.p0(i64 8, ptr %10) #7
  call void @llvm.lifetime.end.p0(i64 8, ptr %9) #7
  call void @llvm.lifetime.end.p0(i64 8, ptr %8) #7
  br label %93

93:                                               ; preds = %57, %48
  store i32 0, ptr %7, align 4
  br label %94

94:                                               ; preds = %93, %44
  call void @llvm.lifetime.end.p0(i64 4, ptr %6) #7
  %95 = load i32, ptr %7, align 4
  switch i32 %95, label %126 [
    i32 0, label %96
    i32 4, label %97
  ]

96:                                               ; preds = %94
  br label %97

97:                                               ; preds = %96, %94
  %98 = load i8, ptr %5, align 1
  %99 = add i8 %98, 1
  store i8 %99, ptr %5, align 1
  br label %15, !llvm.loop !12

100:                                              ; preds = %15
  store i8 0, ptr %5, align 1
  br label %101

101:                                              ; preds = %122, %100
  %102 = load i8, ptr %5, align 1
  %103 = zext i8 %102 to i32
  %104 = load ptr, ptr %2, align 8
  %105 = getelementptr inbounds nuw %struct.XLogReaderState, ptr %104, i32 0, i32 11
  %106 = load ptr, ptr %105, align 8
  %107 = getelementptr inbounds nuw %struct.DecodedXLogRecord, ptr %106, i32 0, i32 10
  %108 = load i32, ptr %107, align 4
  %109 = icmp sle i32 %103, %108
  br i1 %109, label %110, label %125

110:                                              ; preds = %101
  %111 = load i8, ptr %5, align 1
  %112 = zext i8 %111 to i64
  %113 = getelementptr inbounds nuw [4 x i32], ptr %4, i64 0, i64 %112
  %114 = load i32, ptr %113, align 4
  %115 = call zeroext i1 @BufferIsValid(i32 noundef %114)
  br i1 %115, label %116, label %121

116:                                              ; preds = %110
  %117 = load i8, ptr %5, align 1
  %118 = zext i8 %117 to i64
  %119 = getelementptr inbounds nuw [4 x i32], ptr %4, i64 0, i64 %118
  %120 = load i32, ptr %119, align 4
  call void @UnlockReleaseBuffer(i32 noundef %120)
  br label %121

121:                                              ; preds = %116, %110
  br label %122

122:                                              ; preds = %121
  %123 = load i8, ptr %5, align 1
  %124 = add i8 %123, 1
  store i8 %124, ptr %5, align 1
  br label %101, !llvm.loop !13

125:                                              ; preds = %101
  call void @llvm.lifetime.end.p0(i64 1, ptr %5) #7
  call void @llvm.lifetime.end.p0(i64 16, ptr %4) #7
  call void @llvm.lifetime.end.p0(i64 8, ptr %3) #7
  ret void

126:                                              ; preds = %94
  unreachable
}