; Function Attrs: nounwind uwtable
define dso_local void @generic_redo(ptr noundef %0) local_unnamed_addr #0 {
  %2 = alloca [4 x i32], align 16
  %3 = alloca i64, align 8
  %4 = getelementptr inbounds nuw i8, ptr %0, i64 48
  %5 = load i64, ptr %4, align 8
  call void @llvm.lifetime.start.p0(i64 16, ptr nonnull %2) #8
  %6 = getelementptr inbounds nuw i8, ptr %0, i64 104
  %7 = load ptr, ptr %6, align 8
  %8 = getelementptr inbounds nuw i8, ptr %7, i64 84
  %9 = load i32, ptr %8, align 4
  %.not32 = icmp slt i32 %9, 0
  br i1 %.not32, label %._crit_edge, label %.lr.ph

.lr.ph:                                           ; preds = %1
  %10 = lshr i64 %5, 32
  %11 = trunc nuw i64 %10 to i32
  %12 = trunc i64 %5 to i32
  br label %14

.preheader:                                       ; preds = %61
  %13 = icmp slt i32 %66, 0
  br i1 %13, label %._crit_edge, label %.lr.ph36

14:                                               ; preds = %.lr.ph, %61
  %15 = phi ptr [ %7, %.lr.ph ], [ %64, %61 ]
  %.033 = phi i8 [ 0, %.lr.ph ], [ %62, %61 ]
  %16 = getelementptr inbounds nuw i8, ptr %15, i64 88
  %17 = zext i8 %.033 to i64
  %18 = getelementptr inbounds nuw [0 x %struct.DecodedBkpBlock], ptr %16, i64 0, i64 %17
  %19 = load i8, ptr %18, align 8, !range !7, !noundef !8
  %20 = trunc nuw i8 %19 to i1
  %21 = getelementptr inbounds nuw [4 x i32], ptr %2, i64 0, i64 %17
  br i1 %20, label %23, label %22

22:                                               ; preds = %14
  store i32 0, ptr %21, align 4
  br label %61

23:                                               ; preds = %14
  %24 = call i32 @XLogReadBufferForRedo(ptr noundef nonnull %0, i8 noundef zeroext %.033, ptr noundef nonnull %21) #8
  %25 = icmp eq i32 %24, 0
  br i1 %25, label %26, label %61

26:                                               ; preds = %23
  call void @llvm.lifetime.start.p0(i64 8, ptr nonnull %3) #8
  %27 = load i32, ptr %21, align 4
  %28 = icmp slt i32 %27, 0
  br i1 %28, label %29, label %35

29:                                               ; preds = %26
  %30 = load ptr, ptr @LocalBufferBlockPointers, align 8
  %31 = xor i32 %27, -1
  %32 = zext nneg i32 %31 to i64
  %33 = getelementptr inbounds nuw ptr, ptr %30, i64 %32
  %34 = load ptr, ptr %33, align 8
  br label %BufferGetPage.exit

35:                                               ; preds = %26
  %36 = load ptr, ptr @BufferBlocks, align 8
  %37 = add nsw i32 %27, -1
  %38 = sext i32 %37 to i64
  %39 = shl nsw i64 %38, 13
  %40 = getelementptr inbounds nuw i8, ptr %36, i64 %39
  br label %BufferGetPage.exit

BufferGetPage.exit:                               ; preds = %29, %35
  %.0.i.i = phi ptr [ %34, %29 ], [ %40, %35 ]
  %41 = call ptr @XLogRecGetBlockData(ptr noundef nonnull %0, i8 noundef zeroext %.033, ptr noundef nonnull %3) #8
  %42 = load i64, ptr %3, align 8
  %43 = getelementptr inbounds nuw i8, ptr %41, i64 %42
  %.not.i = icmp eq i64 %42, 0
  br i1 %.not.i, label %applyPageRedo.exit, label %.lr.ph.i

.lr.ph.i:                                         ; preds = %BufferGetPage.exit, %.lr.ph.i
  %.015.i = phi ptr [ %49, %.lr.ph.i ], [ %41, %BufferGetPage.exit ]
  %.0.copyload2.i = load i16, ptr %.015.i, align 1
  %44 = getelementptr inbounds nuw i8, ptr %.015.i, i64 2
  %.0.copyload.i = load i16, ptr %44, align 1
  %45 = getelementptr inbounds nuw i8, ptr %.015.i, i64 4
  %46 = zext i16 %.0.copyload2.i to i64
  %47 = getelementptr inbounds nuw i8, ptr %.0.i.i, i64 %46
  %48 = zext i16 %.0.copyload.i to i64
  call void @llvm.memcpy.p0.p0.i64(ptr align 1 %47, ptr nonnull align 1 %45, i64 %48, i1 false)
  %49 = getelementptr inbounds nuw i8, ptr %45, i64 %48
  %50 = icmp ult ptr %49, %43
  br i1 %50, label %.lr.ph.i, label %applyPageRedo.exit, !llvm.loop !15

applyPageRedo.exit:                               ; preds = %.lr.ph.i, %BufferGetPage.exit
  %51 = getelementptr inbounds nuw i8, ptr %.0.i.i, i64 12
  %52 = load i16, ptr %51, align 4
  %53 = zext i16 %52 to i64
  %54 = getelementptr inbounds nuw i8, ptr %.0.i.i, i64 %53
  %55 = getelementptr inbounds nuw i8, ptr %.0.i.i, i64 14
  %56 = load i16, ptr %55, align 2
  %57 = zext i16 %56 to i64
  %58 = sub nsw i64 %57, %53
  call void @llvm.memset.p0.i64(ptr align 1 %54, i8 0, i64 %58, i1 false)
  store i32 %11, ptr %.0.i.i, align 4
  %59 = getelementptr inbounds nuw i8, ptr %.0.i.i, i64 4
  store i32 %12, ptr %59, align 4
  %60 = load i32, ptr %21, align 4
  call void @MarkBufferDirty(i32 noundef %60) #8
  call void @llvm.lifetime.end.p0(i64 8, ptr nonnull %3) #8
  br label %61

61:                                               ; preds = %23, %applyPageRedo.exit, %22
  %62 = add i8 %.033, 1
  %63 = zext i8 %62 to i32
  %64 = load ptr, ptr %6, align 8
  %65 = getelementptr inbounds nuw i8, ptr %64, i64 84
  %66 = load i32, ptr %65, align 4
  %.not = icmp slt i32 %66, %63
  br i1 %.not, label %.preheader, label %14, !llvm.loop !16

.lr.ph36:                                         ; preds = %.preheader, %72
  %67 = phi ptr [ %73, %72 ], [ %64, %.preheader ]
  %.135 = phi i8 [ %74, %72 ], [ 0, %.preheader ]
  %68 = zext i8 %.135 to i64
  %69 = getelementptr inbounds nuw [4 x i32], ptr %2, i64 0, i64 %68
  %70 = load i32, ptr %69, align 4
  %.not31 = icmp eq i32 %70, 0
  br i1 %.not31, label %72, label %71

71:                                               ; preds = %.lr.ph36
  call void @UnlockReleaseBuffer(i32 noundef %70) #8
  %.pre = load ptr, ptr %6, align 8
  br label %72

72:                                               ; preds = %.lr.ph36, %71
  %73 = phi ptr [ %67, %.lr.ph36 ], [ %.pre, %71 ]
  %74 = add i8 %.135, 1
  %75 = zext i8 %74 to i32
  %76 = getelementptr inbounds nuw i8, ptr %73, i64 84
  %77 = load i32, ptr %76, align 4
  %.not30 = icmp slt i32 %77, %75
  br i1 %.not30, label %._crit_edge, label %.lr.ph36, !llvm.loop !17

._crit_edge:                                      ; preds = %72, %1, %.preheader
  call void @llvm.lifetime.end.p0(i64 16, ptr nonnull %2) #8
  ret void
}